target datalayout = "e-m:e-p270:32:32-p271:32:32-p272:64:64-i64:64-i128:128-f80:128-n8:16:32:64-S128"
target triple = "x86_64-pc-linux-gnu"

%class.Metadata = type { ptr }
%class.AccessFlags = type { i32 }
%"class.InterpreterRuntime::SignatureHandlerGenerator" = type <{ %class.NativeSignatureIterator.base, [4 x i8], ptr, i32, i32, i32, [4 x i8] }>
%class.NativeSignatureIterator.base = type <{ ptr, %class.SignatureIterator, %class.methodHandle, i32, i32, i32 }>
%class.SignatureIterator = type { ptr, i8, i64 }
%class.methodHandle = type { ptr, ptr }
%class.NativeSignatureIterator = type <{ ptr, %class.SignatureIterator, %class.methodHandle, i32, i32, i32, [4 x i8] }>
%class.Method = type { %class.Metadata, ptr, ptr, ptr, ptr, %class.AccessFlags, i32, %class.MethodFlags, i16, %class.JfrTraceFlag, ptr, ptr, ptr, ptr }
%class.MethodFlags = type { i32 }
%class.JfrTraceFlag = type { i16 }
%class.ConstMethod = type <{ i64, ptr, ptr, i32, %class.ConstMethodFlags, i8, i8, i16, i16, i16, i16, i16, i16, i16, i16, i16, [4 x i8] }>
%class.ConstMethodFlags = type { i32 }

@_ZTV14MacroAssembler = external unnamed_addr constant { [7 x ptr] }, align 8
@_ZTV9Assembler = linkonce_odr hidden unnamed_addr constant { [3 x ptr] } { [3 x ptr] [ptr null, ptr null, ptr @__cxa_pure_virtual] }, comdat, align 8

; Function Attrs: mustprogress nounwind uwtable
define linkonce_odr hidden noundef ptr @_ZNK12ConstantPool4baseEv(ptr noundef nonnull align 8 dereferenceable(68) %0) #1 comdat align 2 {
  %2 = alloca ptr, align 8
  store ptr %0, ptr %2, align 8
  %3 = load ptr, ptr %2, align 8
  %4 = getelementptr inbounds i8, ptr %3, i64 72
  ret ptr %4
}

; Function Attrs: mustprogress nounwind uwtable
define linkonce_odr hidden noundef ptr @_ZNK12ConstantPool14symbol_at_addrEi(ptr noundef nonnull align 8 dereferenceable(68) %0, i32 noundef %1) #1 comdat align 2 {
  %3 = alloca ptr, align 8
  %4 = alloca i32, align 4
  store ptr %0, ptr %3, align 8
  store i32 %1, ptr %4, align 4
  %5 = load ptr, ptr %3, align 8
  %6 = call noundef ptr @_ZNK12ConstantPool4baseEv(ptr noundef nonnull align 8 dereferenceable(68) %5)
  %7 = load i32, ptr %4, align 4
  %8 = sext i32 %7 to i64
  %9 = getelementptr inbounds i64, ptr %6, i64 %8
  ret ptr %9
}

; Function Attrs: mustprogress nounwind uwtable
define linkonce_odr hidden noundef zeroext i16 @_ZNK11ConstMethod15signature_indexEv(ptr noundef nonnull align 8 dereferenceable(52) %0) #1 comdat align 2 {
  %2 = alloca ptr, align 8
  store ptr %0, ptr %2, align 8
  %3 = load ptr, ptr %2, align 8
  %4 = getelementptr inbounds %class.ConstMethod, ptr %3, i32 0, i32 9
  %5 = load i16, ptr %4, align 2
  ret i16 %5
}

; Function Attrs: mustprogress nounwind uwtable
define linkonce_odr hidden noundef ptr @_ZNK11ConstMethod9constantsEv(ptr noundef nonnull align 8 dereferenceable(52) %0) #1 comdat align 2 {
  %2 = alloca ptr, align 8
  store ptr %0, ptr %2, align 8
  %3 = load ptr, ptr %2, align 8
  %4 = getelementptr inbounds %class.ConstMethod, ptr %3, i32 0, i32 1
  %5 = load ptr, ptr %4, align 8
  ret ptr %5
}

; Function Attrs: mustprogress nounwind uwtable
define linkonce_odr hidden noundef ptr @_ZNK6Method11constMethodEv(ptr noundef nonnull align 8 dereferenceable(88) %0) #1 comdat align 2 {
  %2 = alloca ptr, align 8
  store ptr %0, ptr %2, align 8
  %3 = load ptr, ptr %2, align 8
  %4 = getelementptr inbounds %class.Method, ptr %3, i32 0, i32 1
  %5 = load ptr, ptr %4, align 8
  ret ptr %5
}

; Function Attrs: mustprogress nounwind uwtable
define linkonce_odr hidden void @_ZNK23NativeSignatureIterator6methodEv(ptr dead_on_unwind noalias writable sret(%class.methodHandle) align 8 %0, ptr noundef nonnull align 8 dereferenceable(60) %1) #1 comdat align 2 {
  %3 = alloca ptr, align 8
  %4 = alloca ptr, align 8
  store ptr %0, ptr %3, align 8
  store ptr %1, ptr %4, align 8
  %5 = load ptr, ptr %4, align 8
  %6 = getelementptr inbounds %class.NativeSignatureIterator, ptr %5, i32 0, i32 2
  call void @_ZN12methodHandleC1ERKS_(ptr noundef nonnull align 8 dereferenceable(16) %0, ptr noundef nonnull align 8 dereferenceable(16) %6)
  ret void
}

; Function Attrs: mustprogress nounwind uwtable
define linkonce_odr hidden noundef ptr @_ZNK12ConstantPool9symbol_atEi(ptr noundef nonnull align 8 dereferenceable(68) %0, i32 noundef %1) #1 comdat align 2 {
  %3 = alloca ptr, align 8
  %4 = alloca i32, align 4
  store ptr %0, ptr %3, align 8
  store i32 %1, ptr %4, align 4
  %5 = load ptr, ptr %3, align 8
  %6 = load i32, ptr %4, align 4
  %7 = call noundef ptr @_ZNK12ConstantPool14symbol_at_addrEi(ptr noundef nonnull align 8 dereferenceable(68) %5, i32 noundef %6)
  %8 = load ptr, ptr %7, align 8
  ret ptr %8
}

; Function Attrs: mustprogress nounwind uwtable
define linkonce_odr hidden noundef zeroext i16 @_ZNK6Method15signature_indexEv(ptr noundef nonnull align 8 dereferenceable(88) %0) #1 comdat align 2 {
  %2 = alloca ptr, align 8
  store ptr %0, ptr %2, align 8
  %3 = load ptr, ptr %2, align 8
  %4 = call noundef ptr @_ZNK6Method11constMethodEv(ptr noundef nonnull align 8 dereferenceable(88) %3)
  %5 = call noundef zeroext i16 @_ZNK11ConstMethod15signature_indexEv(ptr noundef nonnull align 8 dereferenceable(52) %4)
  ret i16 %5
}

; Function Attrs: mustprogress nounwind uwtable
define linkonce_odr hidden noundef ptr @_ZNK6Method9constantsEv(ptr noundef nonnull align 8 dereferenceable(88) %0) #1 comdat align 2 {
  %2 = alloca ptr, align 8
  store ptr %0, ptr %2, align 8
  %3 = load ptr, ptr %2, align 8
  %4 = call noundef ptr @_ZNK6Method11constMethodEv(ptr noundef nonnull align 8 dereferenceable(88) %3)
  %5 = call noundef ptr @_ZNK11ConstMethod9constantsEv(ptr noundef nonnull align 8 dereferenceable(52) %4)
  ret ptr %5
}

; Function Attrs: mustprogress nounwind uwtable
define linkonce_odr hidden noundef zeroext i1 @_ZNK11AccessFlags9is_staticEv(ptr noundef nonnull align 4 dereferenceable(4) %0) #1 comdat align 2 {
  %2 = alloca ptr, align 8
  store ptr %0, ptr %2, align 8
  %3 = load ptr, ptr %2, align 8
  %4 = getelementptr inbounds %class.AccessFlags, ptr %3, i32 0, i32 0
  %5 = load i32, ptr %4, align 4
  %6 = and i32 %5, 8
  %7 = icmp ne i32 %6, 0
  ret i1 %7
}

; Function Attrs: mustprogress nounwind uwtable
define linkonce_odr hidden i32 @_ZNK6Method12access_flagsEv(ptr noundef nonnull align 8 dereferenceable(88) %0) #1 comdat align 2 {
  %2 = alloca %class.AccessFlags, align 4
  %3 = alloca ptr, align 8
  store ptr %0, ptr %3, align 8
  %4 = load ptr, ptr %3, align 8
  %5 = getelementptr inbounds %class.Method, ptr %4, i32 0, i32 5
  call void @llvm.memcpy.p0.p0.i64(ptr align 4 %2, ptr align 8 %5, i64 4, i1 false)
  %6 = getelementptr inbounds %class.AccessFlags, ptr %2, i32 0, i32 0
  %7 = load i32, ptr %6, align 4
  ret i32 %7
}

; Function Attrs: mustprogress nounwind uwtable
define linkonce_odr hidden noundef ptr @_ZNK12methodHandle12non_null_objEv(ptr noundef nonnull align 8 dereferenceable(16) %0) #1 comdat align 2 {
  %2 = alloca ptr, align 8
  store ptr %0, ptr %2, align 8
  %3 = load ptr, ptr %2, align 8
  %4 = getelementptr inbounds %class.methodHandle, ptr %3, i32 0, i32 0
  %5 = load ptr, ptr %4, align 8
  ret ptr %5
}

; Function Attrs: mustprogress nounwind uwtable
define linkonce_odr hidden void @_ZN9AssemblerC2EP10CodeBuffer(ptr noundef nonnull align 8 dereferenceable(40) %0, ptr noundef %1) unnamed_addr #1 comdat align 2 {
  %3 = alloca ptr, align 8
  %4 = alloca ptr, align 8
  store ptr %0, ptr %3, align 8
  store ptr %1, ptr %4, align 8
  %5 = load ptr, ptr %3, align 8
  %6 = load ptr, ptr %4, align 8
  call void @_ZN17AbstractAssemblerC2EP10CodeBuffer(ptr noundef nonnull align 8 dereferenceable(24) %5, ptr noundef %6)
  store ptr getelementptr inbounds inrange(-16, 8) ({ [3 x ptr] }, ptr @_ZTV9Assembler, i32 0, i32 0, i32 2), ptr %5, align 8
  call void @_ZN9Assembler15init_attributesEv(ptr noundef nonnull align 8 dereferenceable(40) %5)
  ret void
}

; Function Attrs: mustprogress nounwind uwtable
define linkonce_odr hidden noundef zeroext i1 @_ZNK23NativeSignatureIterator9is_staticEv(ptr noundef nonnull align 8 dereferenceable(60) %0) #1 comdat align 2 {
  %2 = alloca ptr, align 8
  %3 = alloca %class.methodHandle, align 8
  store ptr %0, ptr %2, align 8
  %4 = load ptr, ptr %2, align 8
  call void @_ZNK23NativeSignatureIterator6methodEv(ptr dead_on_unwind writable sret(%class.methodHandle) align 8 %3, ptr noundef nonnull align 8 dereferenceable(60) %4)
  %5 = call noundef ptr @_ZNK12methodHandleptEv(ptr noundef nonnull align 8 dereferenceable(16) %3)
  %6 = call noundef zeroext i1 @_ZNK6Method9is_staticEv(ptr noundef nonnull align 8 dereferenceable(88) %5)
  call void @_ZN12methodHandleD1Ev(ptr noundef nonnull align 8 dereferenceable(16) %3) #7
  ret i1 %6
}

; Function Attrs: mustprogress nounwind uwtable
define linkonce_odr hidden void @_ZN12methodHandleC2Ev(ptr noundef nonnull align 8 dereferenceable(16) %0) unnamed_addr #1 comdat align 2 {
  %2 = alloca ptr, align 8
  store ptr %0, ptr %2, align 8
  %3 = load ptr, ptr %2, align 8
  %4 = getelementptr inbounds %class.methodHandle, ptr %3, i32 0, i32 0
  store ptr null, ptr %4, align 8
  %5 = getelementptr inbounds %class.methodHandle, ptr %3, i32 0, i32 1
  store ptr null, ptr %5, align 8
  ret void
}

; Function Attrs: mustprogress nounwind uwtable
define linkonce_odr hidden void @_ZN17SignatureIteratorC2EP6Symbolm(ptr noundef nonnull align 8 dereferenceable(24) %0, ptr noundef %1, i64 noundef %2) unnamed_addr #1 comdat align 2 {
  %4 = alloca ptr, align 8
  %5 = alloca ptr, align 8
  %6 = alloca i64, align 8
  store ptr %0, ptr %4, align 8
  store ptr %1, ptr %5, align 8
  store i64 %2, ptr %6, align 8
  %7 = load ptr, ptr %4, align 8
  %8 = load ptr, ptr %5, align 8
  %9 = getelementptr inbounds %class.SignatureIterator, ptr %7, i32 0, i32 0
  store ptr %8, ptr %9, align 8
  %10 = getelementptr inbounds %class.SignatureIterator, ptr %7, i32 0, i32 1
  store i8 99, ptr %10, align 8
  %11 = call noundef i64 @_ZN17SignatureIterator16zero_fingerprintEv()
  %12 = getelementptr inbounds %class.SignatureIterator, ptr %7, i32 0, i32 2
  store i64 %11, ptr %12, align 8
  %13 = load i64, ptr %6, align 8
  %14 = getelementptr inbounds %class.SignatureIterator, ptr %7, i32 0, i32 2
  %15 = load i64, ptr %14, align 8
  %16 = icmp ne i64 %13, %15
  br i1 %16, label %17, label %19

17:                                               ; preds = %3
  %18 = load i64, ptr %6, align 8
  call void @_ZN17SignatureIterator15set_fingerprintEm(ptr noundef nonnull align 8 dereferenceable(24) %7, i64 noundef %18)
  br label %19

19:                                               ; preds = %17, %3
  ret void
}

; Function Attrs: mustprogress nounwind uwtable
define linkonce_odr hidden noundef i64 @_ZN17SignatureIterator16zero_fingerprintEv() #1 comdat align 2 {
  ret i64 0
}

; Function Attrs: mustprogress nounwind uwtable
define linkonce_odr hidden noundef ptr @_ZNK6Method9signatureEv(ptr noundef nonnull align 8 dereferenceable(88) %0) #1 comdat align 2 {
  %2 = alloca ptr, align 8
  store ptr %0, ptr %2, align 8
  %3 = load ptr, ptr %2, align 8
  %4 = call noundef ptr @_ZNK6Method9constantsEv(ptr noundef nonnull align 8 dereferenceable(88) %3)
  %5 = call noundef zeroext i16 @_ZNK6Method15signature_indexEv(ptr noundef nonnull align 8 dereferenceable(88) %3)
  %6 = zext i16 %5 to i32
  %7 = call noundef ptr @_ZNK12ConstantPool9symbol_atEi(ptr noundef nonnull align 8 dereferenceable(68) %4, i32 noundef %6)
  ret ptr %7
}

; Function Attrs: mustprogress nounwind uwtable
define linkonce_odr hidden noundef zeroext i1 @_ZNK6Method9is_staticEv(ptr noundef nonnull align 8 dereferenceable(88) %0) #1 comdat align 2 {
  %2 = alloca ptr, align 8
  %3 = alloca %class.AccessFlags, align 4
  store ptr %0, ptr %2, align 8
  %4 = load ptr, ptr %2, align 8
  %5 = call i32 @_ZNK6Method12access_flagsEv(ptr noundef nonnull align 8 dereferenceable(88) %4)
  %6 = getelementptr inbounds %class.AccessFlags, ptr %3, i32 0, i32 0
  store i32 %5, ptr %6, align 4
  %7 = call noundef zeroext i1 @_ZNK11AccessFlags9is_staticEv(ptr noundef nonnull align 4 dereferenceable(4) %3)
  ret i1 %7
}

; Function Attrs: mustprogress nounwind uwtable
define linkonce_odr hidden noundef ptr @_ZNK12methodHandleptEv(ptr noundef nonnull align 8 dereferenceable(16) %0) #1 comdat align 2 {
  %2 = alloca ptr, align 8
  store ptr %0, ptr %2, align 8
  %3 = load ptr, ptr %2, align 8
  %4 = call noundef ptr @_ZNK12methodHandle12non_null_objEv(ptr noundef nonnull align 8 dereferenceable(16) %3)
  ret ptr %4
}

; Function Attrs: mustprogress nounwind uwtable
define linkonce_odr hidden void @_ZN14MacroAssemblerC2EP10CodeBuffer(ptr noundef nonnull align 8 dereferenceable(40) %0, ptr noundef %1) unnamed_addr #1 comdat align 2 {
  %3 = alloca ptr, align 8
  %4 = alloca ptr, align 8
  store ptr %0, ptr %3, align 8
  store ptr %1, ptr %4, align 8
  %5 = load ptr, ptr %3, align 8
  %6 = load ptr, ptr %4, align 8
  call void @_ZN9AssemblerC2EP10CodeBuffer(ptr noundef nonnull align 8 dereferenceable(40) %5, ptr noundef %6)
  store ptr getelementptr inbounds inrange(-16, 40) ({ [7 x ptr] }, ptr @_ZTV14MacroAssembler, i32 0, i32 0, i32 2), ptr %5, align 8
  ret void
}

; Function Attrs: mustprogress nounwind uwtable
define linkonce_odr hidden noundef ptr @_ZN11ResourceObjnwEm(i64 noundef %0) #1 comdat align 2 {
  %2 = alloca i64, align 8
  store i64 %0, ptr %2, align 8
  %3 = load i64, ptr %2, align 8
  %4 = call noundef ptr @_Z23resource_allocate_bytesmN17AllocFailStrategy13AllocFailEnumE(i64 noundef %3, i32 noundef 0)
  ret ptr %4
}

; Function Attrs: mustprogress nounwind uwtable
define linkonce_odr hidden void @_ZN23NativeSignatureIteratorC2ERK12methodHandle(ptr noundef nonnull align 8 dereferenceable(60) %0, ptr noundef nonnull align 8 dereferenceable(16) %1) unnamed_addr #1 comdat align 2 {
  %3 = alloca ptr, align 8
  %4 = alloca ptr, align 8
  %5 = alloca i32, align 4
  %6 = alloca i32, align 4
  store ptr %0, ptr %3, align 8
  store ptr %1, ptr %4, align 8
  %7 = load ptr, ptr %3, align 8
  %8 = getelementptr inbounds i8, ptr %7, i64 8
  %9 = load ptr, ptr %4, align 8
  %10 = call noundef ptr @_ZNK12methodHandleptEv(ptr noundef nonnull align 8 dereferenceable(16) %9)
  %11 = call noundef ptr @_ZNK6Method9signatureEv(ptr noundef nonnull align 8 dereferenceable(88) %10)
  %12 = call noundef i64 @_ZN17SignatureIterator16zero_fingerprintEv()
  call void @_ZN17SignatureIteratorC2EP6Symbolm(ptr noundef nonnull align 8 dereferenceable(24) %8, ptr noundef %11, i64 noundef %12)
  store ptr getelementptr inbounds inrange(-16, 56) ({ [9 x ptr] }, ptr @_ZTV23NativeSignatureIterator, i32 0, i32 0, i32 2), ptr %7, align 8
  %13 = getelementptr inbounds %class.NativeSignatureIterator, ptr %7, i32 0, i32 2
  call void @_ZN12methodHandleC2Ev(ptr noundef nonnull align 8 dereferenceable(16) %13)
  %14 = load ptr, ptr %4, align 8
  %15 = getelementptr inbounds %class.NativeSignatureIterator, ptr %7, i32 0, i32 2
  %16 = call noundef nonnull align 8 dereferenceable(16) ptr @_ZN12methodHandleaSERKS_(ptr noundef nonnull align 8 dereferenceable(16) %15, ptr noundef nonnull align 8 dereferenceable(16) %14)
  %17 = getelementptr inbounds %class.NativeSignatureIterator, ptr %7, i32 0, i32 3
  store i32 0, ptr %17, align 8
  %18 = getelementptr inbounds %class.NativeSignatureIterator, ptr %7, i32 0, i32 5
  store i32 0, ptr %18, align 8
  store i32 1, ptr %5, align 4
  store i32 1, ptr %6, align 4
  %19 = call noundef zeroext i1 @_ZNK23NativeSignatureIterator9is_staticEv(ptr noundef nonnull align 8 dereferenceable(60) %7)
  %20 = xor i1 %19, true
  %21 = select i1 %20, i32 1, i32 2
  %22 = getelementptr inbounds %class.NativeSignatureIterator, ptr %7, i32 0, i32 4
  store i32 %21, ptr %22, align 4
  ret void
}

; Function Attrs: mustprogress nounwind uwtable
define hidden void @_ZN18InterpreterRuntime25SignatureHandlerGeneratorC2ERK12methodHandleP10CodeBuffer(ptr noundef nonnull align 8 dereferenceable(84) %0, ptr noundef nonnull align 8 dereferenceable(16) %1, ptr noundef %2) unnamed_addr #1 align 2 {
  %4 = alloca ptr, align 8
  %5 = alloca ptr, align 8
  %6 = alloca ptr, align 8
  store ptr %0, ptr %4, align 8
  store ptr %1, ptr %5, align 8
  store ptr %2, ptr %6, align 8
  %7 = load ptr, ptr %4, align 8
  %8 = load ptr, ptr %5, align 8
  call void @_ZN23NativeSignatureIteratorC2ERK12methodHandle(ptr noundef nonnull align 8 dereferenceable(60) %7, ptr noundef nonnull align 8 dereferenceable(16) %8)
  store ptr getelementptr inbounds inrange(-16, 56) ({ [9 x ptr] }, ptr @_ZTVN18InterpreterRuntime25SignatureHandlerGeneratorE, i32 0, i32 0, i32 2), ptr %7, align 8
  %9 = call noundef ptr @_ZN11ResourceObjnwEm(i64 noundef 40)
  %10 = load ptr, ptr %6, align 8
  call void @_ZN14MacroAssemblerC2EP10CodeBuffer(ptr noundef nonnull align 8 dereferenceable(40) %9, ptr noundef %10)
  %11 = getelementptr inbounds %"class.InterpreterRuntime::SignatureHandlerGenerator", ptr %7, i32 0, i32 2
  store ptr %9, ptr %11, align 8
  %12 = load ptr, ptr %5, align 8
  %13 = call noundef ptr @_ZNK12methodHandleptEv(ptr noundef nonnull align 8 dereferenceable(16) %12)
  %14 = call noundef zeroext i1 @_ZNK6Method9is_staticEv(ptr noundef nonnull align 8 dereferenceable(88) %13)
  %15 = select i1 %14, i32 1, i32 0
  %16 = getelementptr inbounds %"class.InterpreterRuntime::SignatureHandlerGenerator", ptr %7, i32 0, i32 4
  store i32 %15, ptr %16, align 4
  %17 = getelementptr inbounds %"class.InterpreterRuntime::SignatureHandlerGenerator", ptr %7, i32 0, i32 3
  store i32 0, ptr %17, align 8
  %18 = getelementptr inbounds %"class.InterpreterRuntime::SignatureHandlerGenerator", ptr %7, i32 0, i32 5
  store i32 8, ptr %18, align 8
  ret void
}