; Function Attrs: mustprogress nounwind uwtable
define hidden void @_ZN18InterpreterRuntime25SignatureHandlerGeneratorC2ERK12methodHandleP10CodeBuffer(ptr noundef nonnull align 8 dereferenceable(84) %0, ptr noundef nonnull align 8 dereferenceable(16) %1, ptr noundef %2) unnamed_addr #0 align 2 {
  %4 = alloca %class.methodHandle, align 8
  %5 = getelementptr inbounds i8, ptr %0, i64 8
  %6 = load ptr, ptr %1, align 8
  %7 = getelementptr inbounds i8, ptr %6, i64 8
  %8 = load ptr, ptr %7, align 8
  %9 = getelementptr inbounds i8, ptr %8, i64 8
  %10 = load ptr, ptr %9, align 8
  %11 = getelementptr inbounds i8, ptr %8, i64 38
  %12 = load i16, ptr %11, align 2
  %13 = getelementptr inbounds i8, ptr %10, i64 72
  %14 = zext i16 %12 to i64
  %15 = getelementptr inbounds i64, ptr %13, i64 %14
  %16 = load ptr, ptr %15, align 8
  store ptr %16, ptr %5, align 8
  %17 = getelementptr inbounds i8, ptr %0, i64 16
  store i8 99, ptr %17, align 8
  %18 = getelementptr inbounds i8, ptr %0, i64 24
  store i64 0, ptr %18, align 8
  store ptr getelementptr inbounds inrange(-16, 56) (i8, ptr @_ZTV23NativeSignatureIterator, i64 16), ptr %0, align 8
  %19 = getelementptr inbounds i8, ptr %0, i64 32
  tail call void @llvm.memset.p0.i64(ptr noundef nonnull align 8 dereferenceable(16) %19, i8 0, i64 16, i1 false)
  %20 = tail call noundef nonnull align 8 dereferenceable(16) ptr @_ZN12methodHandleaSERKS_(ptr noundef nonnull align 8 dereferenceable(16) %19, ptr noundef nonnull align 8 dereferenceable(16) %1) #10
  %21 = getelementptr inbounds i8, ptr %0, i64 48
  store i32 0, ptr %21, align 8
  %22 = getelementptr inbounds i8, ptr %0, i64 56
  store i32 0, ptr %22, align 8
  call void @llvm.lifetime.start.p0(i64 16, ptr nonnull %4)
  call void @_ZN12methodHandleC1ERKS_(ptr noundef nonnull align 8 dereferenceable(16) %4, ptr noundef nonnull align 8 dereferenceable(16) %19) #10
  %23 = load ptr, ptr %4, align 8
  %24 = getelementptr inbounds i8, ptr %23, i64 40
  %.sroa.0.0.copyload.i.i.i.i = load i32, ptr %24, align 8
  %25 = and i32 %.sroa.0.0.copyload.i.i.i.i, 8
  %.not.i = icmp eq i32 %25, 0
  call void @_ZN12methodHandleD1Ev(ptr noundef nonnull align 8 dereferenceable(16) %4) #10
  call void @llvm.lifetime.end.p0(i64 16, ptr nonnull %4)
  %26 = select i1 %.not.i, i32 1, i32 2
  %27 = getelementptr inbounds i8, ptr %0, i64 52
  store i32 %26, ptr %27, align 4
  store ptr getelementptr inbounds inrange(-16, 56) (i8, ptr @_ZTVN18InterpreterRuntime25SignatureHandlerGeneratorE, i64 16), ptr %0, align 8
  %28 = call noundef ptr @_Z23resource_allocate_bytesmN17AllocFailStrategy13AllocFailEnumE(i64 noundef 40, i32 noundef 0) #10
  call void @_ZN17AbstractAssemblerC2EP10CodeBuffer(ptr noundef nonnull align 8 dereferenceable(24) %28, ptr noundef %2) #10
  store ptr getelementptr inbounds inrange(-16, 8) (i8, ptr @_ZTV9Assembler, i64 16), ptr %28, align 8
  call void @_ZN9Assembler15init_attributesEv(ptr noundef nonnull align 8 dereferenceable(40) %28) #10
  store ptr getelementptr inbounds inrange(-16, 40) (i8, ptr @_ZTV14MacroAssembler, i64 16), ptr %28, align 8
  %29 = getelementptr inbounds i8, ptr %0, i64 64
  store ptr %28, ptr %29, align 8
  %30 = load ptr, ptr %1, align 8
  %31 = getelementptr inbounds i8, ptr %30, i64 40
  %.sroa.0.0.copyload.i.i = load i32, ptr %31, align 8
  %32 = lshr i32 %.sroa.0.0.copyload.i.i, 3
  %.lobit = and i32 %32, 1
  %33 = getelementptr inbounds i8, ptr %0, i64 76
  store i32 %.lobit, ptr %33, align 4
  %34 = getelementptr inbounds i8, ptr %0, i64 72
  store i32 0, ptr %34, align 8
  %35 = getelementptr inbounds i8, ptr %0, i64 80
  store i32 8, ptr %35, align 8
  ret void
}